target datalayout = "e-m:e-p270:32:32-p271:32:32-p272:64:64-i64:64-i128:128-f80:128-n8:16:32:64-S128"
target triple = "x86_64-pc-linux-gnu"

%struct.TwoPhaseStateData = type { ptr, i32, [0 x ptr] }
%struct.GlobalTransactionData = type { ptr, i32, i64, i64, i64, i32, i32, i32, i8, i8, i8, [200 x i8] }
%struct.pg_atomic_uint32 = type { i32 }
%struct.LWLock = type { i16, %struct.pg_atomic_uint32, %struct.proclist_head }
%struct.proclist_head = type { i32, i32 }
%union.LWLockPadded = type { %struct.LWLock, [112 x i8] }

@TwoPhaseState = internal global ptr null, align 8
@MainLWLockArray = external global ptr, align 8
@.str.2 = private unnamed_addr constant [11 x i8] c"twophase.c\00", align 1
@.str.24 = private unnamed_addr constant [33 x i8] c"invalid two-phase transaction ID\00", align 1
@__func__.TwoPhaseTransactionGid = private unnamed_addr constant [23 x i8] c"TwoPhaseTransactionGid\00", align 1
@.str.25 = private unnamed_addr constant [13 x i8] c"pg_gid_%u_%u\00", align 1

; Function Attrs: nounwind uwtable
define dso_local void @TwoPhaseTransactionGid(i32 noundef %0, i32 noundef %1, ptr noundef %2, i32 noundef %3) #0 {
  %5 = alloca i32, align 4
  %6 = alloca i32, align 4
  %7 = alloca ptr, align 8
  %8 = alloca i32, align 4
  store i32 %0, ptr %5, align 4
  store i32 %1, ptr %6, align 4
  store ptr %2, ptr %7, align 8
  store i32 %3, ptr %8, align 4
  %9 = load i32, ptr %6, align 4
  %10 = icmp ne i32 %9, 0
  br i1 %10, label %22, label %11

11:                                               ; preds = %4
  br label %12

12:                                               ; preds = %11
  br i1 true, label %13, label %15

13:                                               ; preds = %12
  %14 = call zeroext i1 @errstart_cold(i32 noundef 21, ptr noundef null) #13
  br i1 %14, label %17, label %20

15:                                               ; preds = %12
  %16 = call zeroext i1 @errstart(i32 noundef 21, ptr noundef null)
  br i1 %16, label %17, label %20

17:                                               ; preds = %15, %13
  %18 = call i32 @errcode(i32 noundef 16908800)
  %19 = call i32 (ptr, ...) @errmsg_internal(ptr noundef @.str.24)
  call void @errfinish(ptr noundef @.str.2, i32 noundef 2689, ptr noundef @__func__.TwoPhaseTransactionGid)
  br label %20

20:                                               ; preds = %17, %15, %13
  unreachable

21:                                               ; No predecessors!
  br label %22

22:                                               ; preds = %21, %4
  %23 = load ptr, ptr %7, align 8
  %24 = load i32, ptr %8, align 4
  %25 = sext i32 %24 to i64
  %26 = load i32, ptr %5, align 4
  %27 = load i32, ptr %6, align 4
  %28 = call i32 (ptr, i64, ptr, ...) @pg_snprintf(ptr noundef %23, i64 noundef %25, ptr noundef @.str.25, i32 noundef %26, i32 noundef %27)
  ret void
}

; Function Attrs: nounwind uwtable
define internal zeroext i1 @IsTwoPhaseTransactionGidForSubid(i32 noundef %0, ptr noundef %1) #0 {
  %3 = alloca i1, align 1
  %4 = alloca i32, align 4
  %5 = alloca ptr, align 8
  %6 = alloca i32, align 4
  %7 = alloca i32, align 4
  %8 = alloca i32, align 4
  %9 = alloca [200 x i8], align 16
  %10 = alloca i32, align 4
  store i32 %0, ptr %4, align 4
  store ptr %1, ptr %5, align 8
  call void @llvm.lifetime.start.p0(i64 4, ptr %6) #12
  call void @llvm.lifetime.start.p0(i64 4, ptr %7) #12
  call void @llvm.lifetime.start.p0(i64 4, ptr %8) #12
  call void @llvm.lifetime.start.p0(i64 200, ptr %9) #12
  %11 = load ptr, ptr %5, align 8
  %12 = call i32 (ptr, ptr, ...) @__isoc99_sscanf(ptr noundef %11, ptr noundef @.str.25, ptr noundef %7, ptr noundef %8) #12
  store i32 %12, ptr %6, align 4
  %13 = load i32, ptr %6, align 4
  %14 = icmp ne i32 %13, 2
  br i1 %14, label %19, label %15

15:                                               ; preds = %2
  %16 = load i32, ptr %4, align 4
  %17 = load i32, ptr %7, align 4
  %18 = icmp ne i32 %16, %17
  br i1 %18, label %19, label %20

19:                                               ; preds = %15, %2
  store i1 false, ptr %3, align 1
  store i32 1, ptr %10, align 4
  br label %28

20:                                               ; preds = %15
  %21 = load i32, ptr %4, align 4
  %22 = load i32, ptr %8, align 4
  %23 = getelementptr inbounds [200 x i8], ptr %9, i64 0, i64 0
  call void @TwoPhaseTransactionGid(i32 noundef %21, i32 noundef %22, ptr noundef %23, i32 noundef 200)
  %24 = load ptr, ptr %5, align 8
  %25 = getelementptr inbounds [200 x i8], ptr %9, i64 0, i64 0
  %26 = call i32 @strcmp(ptr noundef %24, ptr noundef %25) #14
  %27 = icmp eq i32 %26, 0
  store i1 %27, ptr %3, align 1
  store i32 1, ptr %10, align 4
  br label %28

28:                                               ; preds = %20, %19
  call void @llvm.lifetime.end.p0(i64 200, ptr %9) #12
  call void @llvm.lifetime.end.p0(i64 4, ptr %8) #12
  call void @llvm.lifetime.end.p0(i64 4, ptr %7) #12
  call void @llvm.lifetime.end.p0(i64 4, ptr %6) #12
  %29 = load i1, ptr %3, align 1
  ret i1 %29
}

; Function Attrs: nounwind uwtable
define dso_local zeroext i1 @LookupGXactBySubid(i32 noundef %0) #0 {
  %2 = alloca i32, align 4
  %3 = alloca i8, align 1
  %4 = alloca i32, align 4
  %5 = alloca i32, align 4
  %6 = alloca ptr, align 8
  store i32 %0, ptr %2, align 4
  call void @llvm.lifetime.start.p0(i64 1, ptr %3) #12
  store i8 0, ptr %3, align 1
  %7 = load ptr, ptr @MainLWLockArray, align 8
  %8 = getelementptr inbounds %union.LWLockPadded, ptr %7, i64 18
  %9 = call zeroext i1 @LWLockAcquire(ptr noundef %8, i32 noundef 1)
  call void @llvm.lifetime.start.p0(i64 4, ptr %4) #12
  store i32 0, ptr %4, align 4
  br label %10

10:                                               ; preds = %39, %1
  %11 = load i32, ptr %4, align 4
  %12 = load ptr, ptr @TwoPhaseState, align 8
  %13 = getelementptr inbounds nuw %struct.TwoPhaseStateData, ptr %12, i32 0, i32 1
  %14 = load i32, ptr %13, align 8
  %15 = icmp slt i32 %11, %14
  br i1 %15, label %17, label %16

16:                                               ; preds = %10
  store i32 2, ptr %5, align 4
  br label %42

17:                                               ; preds = %10
  call void @llvm.lifetime.start.p0(i64 8, ptr %6) #12
  %18 = load ptr, ptr @TwoPhaseState, align 8
  %19 = getelementptr inbounds nuw %struct.TwoPhaseStateData, ptr %18, i32 0, i32 2
  %20 = load i32, ptr %4, align 4
  %21 = sext i32 %20 to i64
  %22 = getelementptr inbounds [0 x ptr], ptr %19, i64 0, i64 %21
  %23 = load ptr, ptr %22, align 8
  store ptr %23, ptr %6, align 8
  %24 = load ptr, ptr %6, align 8
  %25 = getelementptr inbounds nuw %struct.GlobalTransactionData, ptr %24, i32 0, i32 8
  %26 = load i8, ptr %25, align 4, !range !4, !noundef !5
  %27 = trunc i8 %26 to i1
  br i1 %27, label %28, label %35

28:                                               ; preds = %17
  %29 = load i32, ptr %2, align 4
  %30 = load ptr, ptr %6, align 8
  %31 = getelementptr inbounds nuw %struct.GlobalTransactionData, ptr %30, i32 0, i32 11
  %32 = getelementptr inbounds [200 x i8], ptr %31, i64 0, i64 0
  %33 = call zeroext i1 @IsTwoPhaseTransactionGidForSubid(i32 noundef %29, ptr noundef %32)
  br i1 %33, label %34, label %35

34:                                               ; preds = %28
  store i8 1, ptr %3, align 1
  store i32 2, ptr %5, align 4
  br label %36

35:                                               ; preds = %28, %17
  store i32 0, ptr %5, align 4
  br label %36

36:                                               ; preds = %35, %34
  call void @llvm.lifetime.end.p0(i64 8, ptr %6) #12
  %37 = load i32, ptr %5, align 4
  switch i32 %37, label %42 [
    i32 0, label %38
  ]

38:                                               ; preds = %36
  br label %39

39:                                               ; preds = %38
  %40 = load i32, ptr %4, align 4
  %41 = add i32 %40, 1
  store i32 %41, ptr %4, align 4
  br label %10, !llvm.loop !26

42:                                               ; preds = %36, %16
  call void @llvm.lifetime.end.p0(i64 4, ptr %4) #12
  br label %43

43:                                               ; preds = %42
  %44 = load ptr, ptr @MainLWLockArray, align 8
  %45 = getelementptr inbounds %union.LWLockPadded, ptr %44, i64 18
  call void @LWLockRelease(ptr noundef %45)
  %46 = load i8, ptr %3, align 1, !range !4, !noundef !5
  %47 = trunc i8 %46 to i1
  store i32 1, ptr %5, align 4
  call void @llvm.lifetime.end.p0(i64 1, ptr %3) #12
  ret i1 %47
}