; Function Attrs: nounwind uwtable
define dso_local noundef zeroext i1 @LookupGXactBySubid(i32 noundef %0) local_unnamed_addr #0 {
  %2 = alloca i32, align 4
  %3 = alloca i32, align 4
  %4 = alloca [200 x i8], align 16
  %5 = load ptr, ptr @MainLWLockArray, align 8
  %6 = getelementptr inbounds nuw i8, ptr %5, i64 2304
  %7 = tail call zeroext i1 @LWLockAcquire(ptr noundef nonnull %6, i32 noundef 1) #14
  %8 = load ptr, ptr @TwoPhaseState, align 8
  %9 = getelementptr inbounds nuw i8, ptr %8, i64 8
  %10 = load i32, ptr %9, align 8
  %11 = icmp sgt i32 %10, 0
  br i1 %11, label %.lr.ph, label %IsTwoPhaseTransactionGidForSubid.exit._crit_edge

.lr.ph:                                           ; preds = %1, %32
  %indvars.iv = phi i64 [ %indvars.iv.next, %32 ], [ 0, %1 ]
  %12 = phi ptr [ %33, %32 ], [ %8, %1 ]
  %13 = getelementptr inbounds nuw i8, ptr %12, i64 16
  %14 = getelementptr inbounds nuw [0 x ptr], ptr %13, i64 0, i64 %indvars.iv
  %15 = load ptr, ptr %14, align 8
  %16 = getelementptr inbounds nuw i8, ptr %15, i64 52
  %17 = load i8, ptr %16, align 4, !range !4, !noundef !5
  %18 = trunc nuw i8 %17 to i1
  br i1 %18, label %19, label %32

19:                                               ; preds = %.lr.ph
  %20 = getelementptr inbounds nuw i8, ptr %15, i64 55
  call void @llvm.lifetime.start.p0(i64 4, ptr nonnull %2) #14
  call void @llvm.lifetime.start.p0(i64 4, ptr nonnull %3) #14
  call void @llvm.lifetime.start.p0(i64 200, ptr nonnull %4) #14
  %21 = call i32 (ptr, ptr, ...) @__isoc99_sscanf(ptr noundef nonnull readonly %20, ptr noundef nonnull @.str.25, ptr noundef nonnull %2, ptr noundef nonnull %3) #14
  %.not.i = icmp eq i32 %21, 2
  %22 = load i32, ptr %2, align 4
  %.not6.i = icmp eq i32 %0, %22
  %or.cond.i = select i1 %.not.i, i1 %.not6.i, i1 false
  br i1 %or.cond.i, label %23, label %IsTwoPhaseTransactionGidForSubid.exit.thread

IsTwoPhaseTransactionGidForSubid.exit.thread:     ; preds = %19
  call void @llvm.lifetime.end.p0(i64 200, ptr nonnull %4) #14
  call void @llvm.lifetime.end.p0(i64 4, ptr nonnull %3) #14
  call void @llvm.lifetime.end.p0(i64 4, ptr nonnull %2) #14
  br label %32

23:                                               ; preds = %19
  %24 = load i32, ptr %3, align 4
  %.not.i.i = icmp eq i32 %24, 0
  br i1 %.not.i.i, label %25, label %IsTwoPhaseTransactionGidForSubid.exit

25:                                               ; preds = %23
  %26 = call zeroext i1 @errstart_cold(i32 noundef 21, ptr noundef null) #15
  call void @llvm.assume(i1 %26)
  %27 = call i32 @errcode(i32 noundef 16908800) #14
  %28 = call i32 (ptr, ...) @errmsg_internal(ptr noundef nonnull @.str.24) #14
  call void @errfinish(ptr noundef nonnull @.str.2, i32 noundef 2689, ptr noundef nonnull @__func__.TwoPhaseTransactionGid) #14
  unreachable

IsTwoPhaseTransactionGidForSubid.exit:            ; preds = %23
  %29 = call i32 (ptr, i64, ptr, ...) @pg_snprintf(ptr noundef nonnull %4, i64 noundef 200, ptr noundef nonnull @.str.25, i32 noundef %0, i32 noundef %24) #14
  %30 = call i32 @strcmp(ptr noundef nonnull readonly dereferenceable(1) %20, ptr noundef nonnull dereferenceable(1) %4) #16
  %31 = icmp eq i32 %30, 0
  call void @llvm.lifetime.end.p0(i64 200, ptr nonnull %4) #14
  call void @llvm.lifetime.end.p0(i64 4, ptr nonnull %3) #14
  call void @llvm.lifetime.end.p0(i64 4, ptr nonnull %2) #14
  br i1 %31, label %IsTwoPhaseTransactionGidForSubid.exit._crit_edge, label %32

32:                                               ; preds = %.lr.ph, %IsTwoPhaseTransactionGidForSubid.exit, %IsTwoPhaseTransactionGidForSubid.exit.thread
  %indvars.iv.next = add nuw nsw i64 %indvars.iv, 1
  %33 = load ptr, ptr @TwoPhaseState, align 8
  %34 = getelementptr inbounds nuw i8, ptr %33, i64 8
  %35 = load i32, ptr %34, align 8
  %36 = sext i32 %35 to i64
  %37 = icmp slt i64 %indvars.iv.next, %36
  br i1 %37, label %.lr.ph, label %IsTwoPhaseTransactionGidForSubid.exit._crit_edge, !llvm.loop !26

IsTwoPhaseTransactionGidForSubid.exit._crit_edge: ; preds = %32, %IsTwoPhaseTransactionGidForSubid.exit, %1
  %.lcssa = phi i1 [ false, %1 ], [ true, %IsTwoPhaseTransactionGidForSubid.exit ], [ false, %32 ]
  %38 = load ptr, ptr @MainLWLockArray, align 8
  %39 = getelementptr inbounds nuw i8, ptr %38, i64 2304
  call void @LWLockRelease(ptr noundef nonnull %39) #14
  ret i1 %.lcssa
}